target datalayout = "e-m:e-p270:32:32-p271:32:32-p272:64:64-i64:64-i128:128-f80:128-n8:16:32:64-S128"
target triple = "x86_64-pc-linux-gnu"

%struct.mi_random_cxt_s = type { [16 x i32], [16 x i32], i32, i8 }

; Function Attrs: nounwind uwtable
define internal i32 @chacha_next32(ptr noundef %0) #0 {
  %2 = alloca ptr, align 8
  %3 = alloca i32, align 4
  store ptr %0, ptr %2, align 8, !tbaa !3
  %4 = load ptr, ptr %2, align 8, !tbaa !3
  %5 = getelementptr inbounds nuw %struct.mi_random_cxt_s, ptr %4, i32 0, i32 2
  %6 = load i32, ptr %5, align 4, !tbaa !12
  %7 = icmp sle i32 %6, 0
  br i1 %7, label %8, label %12

8:                                                ; preds = %1
  %9 = load ptr, ptr %2, align 8, !tbaa !3
  call void @chacha_block(ptr noundef %9) #6
  %10 = load ptr, ptr %2, align 8, !tbaa !3
  %11 = getelementptr inbounds nuw %struct.mi_random_cxt_s, ptr %10, i32 0, i32 2
  store i32 16, ptr %11, align 4, !tbaa !12
  br label %12

12:                                               ; preds = %8, %1
  call void @llvm.lifetime.start.p0(i64 4, ptr %3) #7
  %13 = load ptr, ptr %2, align 8, !tbaa !3
  %14 = getelementptr inbounds nuw %struct.mi_random_cxt_s, ptr %13, i32 0, i32 1
  %15 = load ptr, ptr %2, align 8, !tbaa !3
  %16 = getelementptr inbounds nuw %struct.mi_random_cxt_s, ptr %15, i32 0, i32 2
  %17 = load i32, ptr %16, align 4, !tbaa !12
  %18 = sub nsw i32 16, %17
  %19 = sext i32 %18 to i64
  %20 = getelementptr inbounds [16 x i32], ptr %14, i64 0, i64 %19
  %21 = load i32, ptr %20, align 4, !tbaa !10
  store i32 %21, ptr %3, align 4, !tbaa !10
  %22 = load ptr, ptr %2, align 8, !tbaa !3
  %23 = getelementptr inbounds nuw %struct.mi_random_cxt_s, ptr %22, i32 0, i32 1
  %24 = load ptr, ptr %2, align 8, !tbaa !3
  %25 = getelementptr inbounds nuw %struct.mi_random_cxt_s, ptr %24, i32 0, i32 2
  %26 = load i32, ptr %25, align 4, !tbaa !12
  %27 = sub nsw i32 16, %26
  %28 = sext i32 %27 to i64
  %29 = getelementptr inbounds [16 x i32], ptr %23, i64 0, i64 %28
  store i32 0, ptr %29, align 4, !tbaa !10
  %30 = load ptr, ptr %2, align 8, !tbaa !3
  %31 = getelementptr inbounds nuw %struct.mi_random_cxt_s, ptr %30, i32 0, i32 2
  %32 = load i32, ptr %31, align 4, !tbaa !12
  %33 = add nsw i32 %32, -1
  store i32 %33, ptr %31, align 4, !tbaa !12
  %34 = load i32, ptr %3, align 4, !tbaa !10
  call void @llvm.lifetime.end.p0(i64 4, ptr %3) #7
  ret i32 %34
}

; Function Attrs: nounwind uwtable
define hidden i64 @_mi_random_next(ptr noundef %0) #0 {
  %2 = alloca ptr, align 8
  store ptr %0, ptr %2, align 8, !tbaa !3
  %3 = load ptr, ptr %2, align 8, !tbaa !3
  %4 = call i32 @chacha_next32(ptr noundef %3) #6
  %5 = zext i32 %4 to i64
  %6 = shl i64 %5, 32
  %7 = load ptr, ptr %2, align 8, !tbaa !3
  %8 = call i32 @chacha_next32(ptr noundef %7) #6
  %9 = zext i32 %8 to i64
  %10 = or i64 %6, %9
  ret i64 %10
}